Microchip MPLAB XC8 Compiler V1.33 ()

Linker command line:

--edf=C:\Program Files (x86)\Microchip\xc8\v1.33\dat\en_msgs.txt -cs \
  -h+dist/default/production\nRF24_TX.X.production.sym \
  --cmf=dist/default/production\nRF24_TX.X.production.cmf -z -Q18F24K22 \
  -oC:\Users\STUDEN~1.N20\AppData\Local\Temp\s3ek.6 \
  -Mdist/default/production/nRF24_TX.X.production.map -E1 -ver=XC8 \
  -ASTACK=060h-02ffh -pstack=STACK -ACODE=00h-03FFFh -ACONST=00h-03FFFh \
  -ASMALLCONST=0300h-03FFhx61 -AMEDIUMCONST=0300h-03FFFh -ACOMRAM=01h-05Fh \
  -AABS1=00h-02FFh -ABIGRAM=01h-02FFh -ARAM=060h-0FFh,0100h-01FFhx2 \
  -ABANK0=060h-0FFh -ABANK1=0100h-01FFh -ABANK2=0200h-02FFh \
  -ASFR=0F38h-0F5Fh,0F60h-0FFFh \
  -preset_vec=00h,intcode,intcodelo,powerup,init,end_init -pramtop=0300h \
  -psmallconst=SMALLCONST -pmediumconst=MEDIUMCONST -pconst=CONST \
  -AFARRAM=00h-00h -ACONFIG=0300000h-030000Dh -pconfig=CONFIG \
  -AIDLOC=0200000h-0200007h -pidloc=IDLOC -AEEDATA=0F00000h-0F000FFh \
  -peeprom_data=EEDATA \
  -prdata=COMRAM,nvrram=COMRAM,nvbit=COMRAM,rbss=COMRAM,rbit=COMRAM \
  -pfarbss=FARRAM,fardata=FARRAM,nvFARRAM=FARRAM \
  -pintsave_regs=BIGRAM,bigbss=BIGRAM,bigdata=BIGRAM -pbss=RAM \
  -pidata=CODE,irdata=CODE,ibigdata=CODE,ifardata=CODE \
  C:\Users\STUDEN~1.N20\AppData\Local\Temp\s3ek.obj \
  dist/default/production\nRF24_TX.X.production.obj 

Object code version is 3.11

Machine type is 18F24K22

Call graph: (short form)




                Name                               Link     Load   Length Selector   Space Scale
C:\Users\STUDEN~1.N20\AppData\Local\Temp\s3ek.obj
                end_init                              0        0        4        0       0
                idloc                            200000   200000        8   200000       0
                config                           300000   300000        E   300000       0
dist/default/production\nRF24_TX.X.production.obj
                text12                             3BBC     3BBC       3C     1DDE       0
                text11                             3B02     3B02       10     1D81       0
                text10                             3B24     3B24       12     1D92       0
                text9                              3BF8     3BF8       4A     1DFC       0
                text8                              3C9E     3C9E       60     1E4F       0
                text7                              3C42     3C42       5C     1E21       0
                text6                              3CFE     3CFE       96     1E7F       0
                text5                              3E34     3E34       DC     1F1A       0
                text4                              3B68     3B68       22     1DB4       0
                text3                              3D94     3D94       A0     1ECA       0
                text2                              3B4E     3B4E       1A     1DA7       0
                text1                              3B36     3B36       18     1D9B       0
                text0                              3F10     3F10       F0     1F88       0
                cstackCOMRAM                         54       54        C        1       1
                dataCOMRAM                           43       43       11        1       1
                bssCOMRAM                             1        1       42        1       1
                cinit                              3B8A     3B8A       32     1DC5       0
                idataCOMRAM                        3B13     3B13       11     3B13       0

TOTAL           Name                               Link     Load   Length     Space
        CLASS   STACK          

        CLASS   CODE           
                end_init                              0        0        4         0
                text12                             3BBC     3BBC       3C         0
                text11                             3B02     3B02       10         0
                text10                             3B24     3B24       12         0
                text9                              3BF8     3BF8       4A         0
                text8                              3C9E     3C9E       60         0
                text7                              3C42     3C42       5C         0
                text6                              3CFE     3CFE       96         0
                text5                              3E34     3E34       DC         0
                text4                              3B68     3B68       22         0
                text3                              3D94     3D94       A0         0
                text2                              3B4E     3B4E       1A         0
                text1                              3B36     3B36       18         0
                text0                              3F10     3F10       F0         0
                cinit                              3B8A     3B8A       32         0
                idataCOMRAM                        3B13     3B13       11         0

        CLASS   CONST          

        CLASS   SMALLCONST     

        CLASS   MEDIUMCONST    

        CLASS   COMRAM         
                cstackCOMRAM                         54       54        C         1
                dataCOMRAM                           43       43       11         1
                bssCOMRAM                             1        1       42         1

        CLASS   ABS1           

        CLASS   BIGRAM         

        CLASS   RAM            

        CLASS   BANK0          

        CLASS   BANK1          

        CLASS   BANK2          

        CLASS   SFR            

        CLASS   FARRAM         

        CLASS   CONFIG         
                config                           300000   300000        E         0

        CLASS   IDLOC          
                idloc                            200000   200000        8         0

        CLASS   EEDATA         



SEGMENTS        Name                           Load    Length   Top    Selector   Space  Class

                reset_vec                      000000  000004  000004         0       0  CODE    
                bssCOMRAM                      000001  00005F  000060         1       1  COMRAM  
                text11                         003B02  000010  003B12      1D81       0  CODE    
                idataCOMRAM                    003B13  000011  003B24      3B13       0  CODE    
                text10                         003B24  000012  003B36      1D92       0  CODE    
                text1                          003B36  000018  003B4E      1D9B       0  CODE    
                text2                          003B4E  00001A  003B68      1DA7       0  CODE    
                text4                          003B68  000022  003B8A      1DB4       0  CODE    
                cinit                          003B8A  000032  003BBC      1DC5       0  CODE    
                text12                         003BBC  00003C  003BF8      1DDE       0  CODE    
                text9                          003BF8  00004A  003C42      1DFC       0  CODE    
                text7                          003C42  00005C  003C9E      1E21       0  CODE    
                text8                          003C9E  000060  003CFE      1E4F       0  CODE    
                text6                          003CFE  000096  003D94      1E7F       0  CODE    
                text3                          003D94  0000A0  003E34      1ECA       0  CODE    
                text5                          003E34  0000DC  003F10      1F1A       0  CODE    
                text0                          003F10  0000F0  004000      1F88       0  CODE    
                idloc                          200000  000008  200008    200000       0  IDLOC   
                config                         300000  00000E  30000E    300000       0  CONFIG  


UNUSED ADDRESS RANGES

        Name                Unused          Largest block    Delta
        BANK0            000060-0000FF               A0
        BANK1            000100-0001FF              100
        BANK2            000200-0002FF              100
        BIGRAM           000060-0002FF              2A0
        CODE             000004-003B01             3AFE
                         003B12-003B12                1
        CONST            000004-003B01             3AFE
                         003B12-003B12                1
        EEDATA           F00000-F000FF              100
        MEDIUMCONST      000300-003B01             3802
                         003B12-003B12                1
        RAM              000060-0002FF              100
        SFR              000F38-000FFF               28
        SMALLCONST       000300-003B01              100
                         003B12-003B12                1
        STACK            000060-0002FF              2A0

                                  Symbol Table

_CONFIG_CURR              dataCOMRAM   000043
_DYNPD_CURR               dataCOMRAM   000044
_EN_AA_CURR               bssCOMRAM    000041
_EN_RXADDR_CURR           dataCOMRAM   000045
_FEATURE_CURR             dataCOMRAM   000046
_LATA                     (abs)        000F89
_LATAbits                 (abs)        000F89
_LATB                     (abs)        000F8A
_LATC                     (abs)        000F8B
_RF_CH_CURR               dataCOMRAM   000047
_RF_SETUP_CURR            dataCOMRAM   000048
_RX_ADDRESS               dataCOMRAM   00004C
_RX_PW_P0_CURR            dataCOMRAM   000049
_SETUP_AW_CURR            dataCOMRAM   00004A
_SETUP_RETR_CURR          dataCOMRAM   00004B
_SSP1ADD                  (abs)        000FC8
_SSP1BUF                  (abs)        000FC9
_SSP1CON1bits             (abs)        000FC6
_SSP1STATbits             (abs)        000FC7
_TRISA                    (abs)        000F92
_TRISB                    (abs)        000F93
_TRISC                    (abs)        000F94
_TX_ADDRESS               dataCOMRAM   000050
__CFG_BOREN$SBORDIS       (abs)        000000
__CFG_BORV$190            (abs)        000000
__CFG_CCP2MX$PORTC1       (abs)        000000
__CFG_CCP3MX$PORTB5       (abs)        000000
__CFG_FCMEN$OFF           (abs)        000000
__CFG_FOSC$HSHP           (abs)        000000
__CFG_HFOFST$ON           (abs)        000000
__CFG_IESO$OFF            (abs)        000000
__CFG_LVP$ON              (abs)        000000
__CFG_MCLRE$EXTMCLR       (abs)        000000
__CFG_P2BMX$PORTB5        (abs)        000000
__CFG_PBADEN$OFF          (abs)        000000
__CFG_PLLCFG$ON           (abs)        000000
__CFG_PRICLKEN$ON         (abs)        000000
__CFG_PWRTEN$ON           (abs)        000000
__CFG_STVREN$ON           (abs)        000000
__CFG_T3CMX$PORTC0        (abs)        000000
__CFG_WDTEN$OFF           (abs)        000000
__CFG_WDTPS$32768         (abs)        000000
__CFG_XINST$OFF           (abs)        000000
__HRAM                    (abs)        000000
__Habs1                   abs1         000000
__Hbank0                  bank0        000000
__Hbank1                  bank1        000000
__Hbank2                  bank2        000000
__Hbigbss                 bigbss       000000
__Hbigdata                bigdata      000000
__Hbigram                 bigram       000000
__Hbss                    bss          000000
__HbssCOMRAM              bssCOMRAM    000000
__Hcinit                  cinit        000000
__Hclrtext                clrtext      000000
__Hcomram                 comram       000000
__Hconfig                 config       30000E
__Hconst                  const        000000
__HcstackCOMRAM           cstackCOMRAM 000000
__Hdata                   data         000000
__HdataCOMRAM             dataCOMRAM   000000
__Heeprom_data            eeprom_data  000000
__Hend_init               end_init     000004
__Hfarbss                 farbss       000000
__Hfardata                fardata      000000
__Hibigdata               ibigdata     000000
__Hidata                  idata        000000
__HidataCOMRAM            idataCOMRAM  000000
__Hidloc                  idloc        200008
__Hifardata               ifardata     000000
__Hinit                   init         000000
__Hintcode                intcode      000000
__Hintcode_body           intcode_body 000000
__Hintcodelo              intcodelo    000000
__Hintentry               intentry     000000
__Hintret                 intret       000000
__Hintsave_regs           intsave_regs 000000
__Hirdata                 irdata       000000
__Hmediumconst            mediumconst  000000
__HnvFARRAM               nvFARRAM     000000
__Hnvbit                  nvbit        000000
__Hnvrram                 nvrram       000000
__Hparam                  rparam       000000
__Hpowerup                powerup      000000
__Hram                    ram          000000
__Hramtop                 ramtop       000300
__Hrbit                   rbit         000000
__Hrbss                   rbss         000000
__Hrdata                  rdata        000000
__Hreset_vec              reset_vec    000000
__Hrparam                 rparam       000000
__Hsfr                    sfr          000000
__Hsmallconst             smallconst   000000
__Hspace_0                (abs)        30000E
__Hspace_1                (abs)        000060
__Hspace_2                (abs)        000000
__Hstack                  stack        000000
__Hstruct                 struct       000000
__Htemp                   temp         000000
__Htext                   text         000000
__Htext0                  text0        000000
__Htext1                  text1        000000
__Htext10                 text10       000000
__Htext11                 text11       000000
__Htext12                 text12       000000
__Htext2                  text2        000000
__Htext3                  text3        000000
__Htext4                  text4        000000
__Htext5                  text5        000000
__Htext6                  text6        000000
__Htext7                  text7        000000
__Htext8                  text8        000000
__Htext9                  text9        000000
__LRAM                    (abs)        000001
__Labs1                   abs1         000000
__Lbank0                  bank0        000000
__Lbank1                  bank1        000000
__Lbank2                  bank2        000000
__Lbigbss                 bigbss       000000
__Lbigdata                bigdata      000000
__Lbigram                 bigram       000000
__Lbss                    bss          000000
__LbssCOMRAM              bssCOMRAM    000000
__Lcinit                  cinit        000000
__Lclrtext                clrtext      000000
__Lcomram                 comram       000000
__Lconfig                 config       300000
__Lconst                  const        000000
__LcstackCOMRAM           cstackCOMRAM 000000
__Ldata                   data         000000
__LdataCOMRAM             dataCOMRAM   000000
__Leeprom_data            eeprom_data  000000
__Lend_init               end_init     000000
__Lfarbss                 farbss       000000
__Lfardata                fardata      000000
__Libigdata               ibigdata     000000
__Lidata                  idata        000000
__LidataCOMRAM            idataCOMRAM  000000
__Lidloc                  idloc        200000
__Lifardata               ifardata     000000
__Linit                   init         000000
__Lintcode                intcode      000000
__Lintcode_body           intcode_body 000000
__Lintcodelo              intcodelo    000000
__Lintentry               intentry     000000
__Lintret                 intret       000000
__Lintsave_regs           intsave_regs 000000
__Lirdata                 irdata       000000
__Lmediumconst            mediumconst  000000
__LnvFARRAM               nvFARRAM     000000
__Lnvbit                  nvbit        000000
__Lnvrram                 nvrram       000000
__Lparam                  rparam       000000
__Lpowerup                powerup      000000
__Lram                    ram          000000
__Lramtop                 ramtop       000300
__Lrbit                   rbit         000000
__Lrbss                   rbss         000000
__Lrdata                  rdata        000000
__Lreset_vec              reset_vec    000000
__Lrparam                 rparam       000000
__Lsfr                    sfr          000000
__Lsmallconst             smallconst   000000
__Lspace_0                (abs)        000000
__Lspace_1                (abs)        000000
__Lspace_2                (abs)        000000
__Lstack                  stack        000000
__Lstruct                 struct       000000
__Ltemp                   temp         000000
__Ltext                   text         000000
__Ltext0                  text0        000000
__Ltext1                  text1        000000
__Ltext10                 text10       000000
__Ltext11                 text11       000000
__Ltext12                 text12       000000
__Ltext2                  text2        000000
__Ltext3                  text3        000000
__Ltext4                  text4        000000
__Ltext5                  text5        000000
__Ltext6                  text6        000000
__Ltext7                  text7        000000
__Ltext8                  text8        000000
__Ltext9                  text9        000000
__S0                      (abs)        30000E
__S1                      (abs)        000060
__S2                      (abs)        000000
___inthi_sp               stack        000000
___intlo_sp               stack        000000
___sp                     stack        000000
__accesstop               (abs)        000060
__activetblptr            (abs)        000000
__end_of__initialization  cinit        003BB6
__end_of_delay10ms        text12       003BF8
__end_of_main             text0        004000
__end_of_nrfConfig        text5        003F10
__end_of_nrfConfigReg     text9        003C42
__end_of_nrfGetStatus     text4        003B8A
__end_of_nrfSetRXAddr     text8        003CFE
__end_of_nrfSetTXAddr     text7        003C9E
__end_of_nrfTXData        text3        003E34
__end_of_portConfig       text2        003B68
__end_of_setCSN           text11       003B12
__end_of_spiConfig_1      text1        003B4E
__end_of_spiTransfer      text6        003D94
__end_of_spiTransferByte  text10       003B36
__initialization          cinit        003B8A
__mediumconst             mediumconst  000000
__pbssCOMRAM              bssCOMRAM    000001
__pcinit                  cinit        003B8A
__pcstackCOMRAM           cstackCOMRAM 000054
__pdataCOMRAM             dataCOMRAM   000043
__pidataCOMRAM            idataCOMRAM  003B13
__ptext0                  text0        003F10
__ptext1                  text1        003B36
__ptext10                 text10       003B24
__ptext11                 text11       003B02
__ptext12                 text12       003BBC
__ptext2                  text2        003B4E
__ptext3                  text3        003D94
__ptext4                  text4        003B68
__ptext5                  text5        003E34
__ptext6                  text6        003CFE
__ptext7                  text7        003C42
__ptext8                  text8        003C9E
__ptext9                  text9        003BF8
__ramtop                  ramtop       000300
__size_of_delay10ms       (abs)        000000
__size_of_main            (abs)        000000
__size_of_nrfConfig       (abs)        000000
__size_of_nrfConfigReg    (abs)        000000
__size_of_nrfGetStatus    (abs)        000000
__size_of_nrfSetRXAddr    (abs)        000000
__size_of_nrfSetTXAddr    (abs)        000000
__size_of_nrfTXData       (abs)        000000
__size_of_portConfig      (abs)        000000
__size_of_setCSN          (abs)        000000
__size_of_spiConfig_1     (abs)        000000
__size_of_spiTransfer     (abs)        000000
__size_of_spiTransferByte (abs)        000000
__smallconst              smallconst   000000
_dataBufIn                bssCOMRAM    000001
_dataBufOut               bssCOMRAM    000021
_delay10ms                text12       003BBC
_main                     text0        003F10
_nrfConfig                text5        003E34
_nrfConfigReg             text9        003BF8
_nrfGetStatus             text4        003B68
_nrfSTATUS                bssCOMRAM    000042
_nrfSetRXAddr             text8        003C9E
_nrfSetTXAddr             text7        003C42
_nrfTXData                text3        003D94
_portConfig               text2        003B4E
_setCSN                   text11       003B02
_spiConfig_1              text1        003B36
_spiTransfer              text6        003CFE
_spiTransferByte          text10       003B24
delay10ms@i               cstackCOMRAM 000057
delay10ms@ms_multi        cstackCOMRAM 000054
end_of_initialization     cinit        003BB6
intlevel0                 text         000000
intlevel1                 text         000000
intlevel2                 text         000000
intlevel3                 text         000000
main@count                cstackCOMRAM 00005E
nrfConfigReg@command      cstackCOMRAM 000056
nrfConfigReg@data         cstackCOMRAM 000057
nrfConfigReg@wr           cstackCOMRAM 000058
nrfSetRXAddr@addr         cstackCOMRAM 000056
nrfSetRXAddr@i            cstackCOMRAM 00005C
nrfSetRXAddr@len          cstackCOMRAM 000058
nrfSetRXAddr@pipe         cstackCOMRAM 00005B
nrfSetTXAddr@addr         cstackCOMRAM 000056
nrfSetTXAddr@i            cstackCOMRAM 00005B
nrfSetTXAddr@len          cstackCOMRAM 000058
nrfTXData@i               cstackCOMRAM 00005B
nrfTXData@i_558           cstackCOMRAM 000059
nrfTXData@len             cstackCOMRAM 000056
setCSN@level              cstackCOMRAM 000054
spiTransfer@command       cstackCOMRAM 000056
spiTransfer@i             cstackCOMRAM 00005A
spiTransfer@len           cstackCOMRAM 000057
spiTransfer@wrn           cstackCOMRAM 00005C
spiTransferByte@data      cstackCOMRAM 000054
stackhi                   (abs)        0002FF
stacklo                   (abs)        000060
start                     init         000000
start_initialization      cinit        003B8A


FUNCTION INFORMATION:

 *************** function _main *****************
 Defined at:
		line 192 in file "main.c"
 Parameters:    Size  Location     Type
		None
 Auto vars:     Size  Location     Type
  count           2   10[COMRAM] int 
 Return value:  Size  Location     Type
		None               void
 Registers used:
		wreg, fsr1l, fsr1h, fsr2l, fsr2h, status,2, status,0, cstack
 Tracked objects:
		On entry : 
		On exit  : 
		Unchanged: 
 Data sizes:     COMRAM   BANK0   BANK1   BANK2
      Params:         0       0       0       0
      Locals:         2       0       0       0
      Temps:          0       0       0       0
      Totals:         2       0       0       0
Total ram usage:        2 bytes
 Hardware stack levels required when called:    3
 This function calls:
		_delay10ms
		_nrfConfig
		_nrfGetStatus
		_nrfTXData
		_portConfig
		_spiConfig_1
		_spiTransfer
 This function is called by:
		Startup code after reset
 This function uses a non-reentrant model


 *************** function _spiConfig_1 *****************
 Defined at:
		line 277 in file "main.c"
 Parameters:    Size  Location     Type
		None
 Auto vars:     Size  Location     Type
		None
 Return value:  Size  Location     Type
		None               void
 Registers used:
		wreg, status,2
 Tracked objects:
		On entry : 
		On exit  : 
		Unchanged: 
 Data sizes:     COMRAM   BANK0   BANK1   BANK2
      Params:         0       0       0       0
      Locals:         0       0       0       0
      Temps:          0       0       0       0
      Totals:         0       0       0       0
Total ram usage:        0 bytes
 Hardware stack levels used:    1
 This function calls:
		Nothing
 This function is called by:
		_main
 This function uses a non-reentrant model


 *************** function _portConfig *****************
 Defined at:
		line 263 in file "main.c"
 Parameters:    Size  Location     Type
		None
 Auto vars:     Size  Location     Type
		None
 Return value:  Size  Location     Type
		None               void
 Registers used:
		wreg, status,2
 Tracked objects:
		On entry : 
		On exit  : 
		Unchanged: 
 Data sizes:     COMRAM   BANK0   BANK1   BANK2
      Params:         0       0       0       0
      Locals:         0       0       0       0
      Temps:          0       0       0       0
      Totals:         0       0       0       0
Total ram usage:        0 bytes
 Hardware stack levels used:    1
 This function calls:
		Nothing
 This function is called by:
		_main
 This function uses a non-reentrant model


 *************** function _nrfTXData *****************
 Defined at:
		line 455 in file "main.c"
 Parameters:    Size  Location     Type
  len             2    2[COMRAM] int 
 Auto vars:     Size  Location     Type
  i               2    7[COMRAM] int 
  i               2    5[COMRAM] int 
 Return value:  Size  Location     Type
		None               void
 Registers used:
		wreg, fsr2l, fsr2h, status,2, status,0, cstack
 Tracked objects:
		On entry : 
		On exit  : 
		Unchanged: 
 Data sizes:     COMRAM   BANK0   BANK1   BANK2
      Params:         2       0       0       0
      Locals:         4       0       0       0
      Temps:          1       0       0       0
      Totals:         7       0       0       0
Total ram usage:        7 bytes
 Hardware stack levels used:    1
 Hardware stack levels required when called:    1
 This function calls:
		_setCSN
		_spiTransferByte
 This function is called by:
		_main
 This function uses a non-reentrant model


 *************** function _nrfGetStatus *****************
 Defined at:
		line 338 in file "main.c"
 Parameters:    Size  Location     Type
		None
 Auto vars:     Size  Location     Type
		None
 Return value:  Size  Location     Type
		None               void
 Registers used:
		wreg, status,2, status,0, cstack
 Tracked objects:
		On entry : 
		On exit  : 
		Unchanged: 
 Data sizes:     COMRAM   BANK0   BANK1   BANK2
      Params:         0       0       0       0
      Locals:         0       0       0       0
      Temps:          0       0       0       0
      Totals:         0       0       0       0
Total ram usage:        0 bytes
 Hardware stack levels used:    1
 Hardware stack levels required when called:    1
 This function calls:
		_setCSN
		_spiTransferByte
 This function is called by:
		_main
 This function uses a non-reentrant model


 *************** function _nrfConfig *****************
 Defined at:
		line 290 in file "main.c"
 Parameters:    Size  Location     Type
		None
 Auto vars:     Size  Location     Type
		None
 Return value:  Size  Location     Type
		None               void
 Registers used:
		wreg, fsr1l, fsr1h, fsr2l, fsr2h, status,2, status,0, cstack
 Tracked objects:
		On entry : 
		On exit  : 
		Unchanged: 
 Data sizes:     COMRAM   BANK0   BANK1   BANK2
      Params:         0       0       0       0
      Locals:         0       0       0       0
      Temps:          0       0       0       0
      Totals:         0       0       0       0
Total ram usage:        0 bytes
 Hardware stack levels used:    1
 Hardware stack levels required when called:    2
 This function calls:
		_nrfConfigReg
		_nrfSetRXAddr
		_nrfSetTXAddr
		_spiTransfer
 This function is called by:
		_main
 This function uses a non-reentrant model


 *************** function _spiTransfer *****************
 Defined at:
		line 418 in file "main.c"
 Parameters:    Size  Location     Type
  wrn             1    wreg     unsigned char 
  command         1    2[COMRAM] unsigned char 
  len             2    3[COMRAM] int 
 Auto vars:     Size  Location     Type
  wrn             1    8[COMRAM] unsigned char 
  i               2    6[COMRAM] int 
 Return value:  Size  Location     Type
		None               void
 Registers used:
		wreg, fsr1l, fsr1h, fsr2l, fsr2h, status,2, status,0, cstack
 Tracked objects:
		On entry : 
		On exit  : 
		Unchanged: 
 Data sizes:     COMRAM   BANK0   BANK1   BANK2
      Params:         3       0       0       0
      Locals:         3       0       0       0
      Temps:          1       0       0       0
      Totals:         7       0       0       0
Total ram usage:        7 bytes
 Hardware stack levels used:    1
 Hardware stack levels required when called:    1
 This function calls:
		_setCSN
		_spiTransferByte
 This function is called by:
		_main
		_nrfConfig
 This function uses a non-reentrant model


 *************** function _nrfSetTXAddr *****************
 Defined at:
		line 372 in file "main.c"
 Parameters:    Size  Location     Type
  addr            2    2[COMRAM] PTR unsigned char 
		 -> TX_ADDRESS(4), 
  len             2    4[COMRAM] int 
 Auto vars:     Size  Location     Type
  i               2    7[COMRAM] int 
 Return value:  Size  Location     Type
		None               void
 Registers used:
		wreg, fsr2l, fsr2h, status,2, status,0, cstack
 Tracked objects:
		On entry : 
		On exit  : 
		Unchanged: 
 Data sizes:     COMRAM   BANK0   BANK1   BANK2
      Params:         4       0       0       0
      Locals:         2       0       0       0
      Temps:          1       0       0       0
      Totals:         7       0       0       0
Total ram usage:        7 bytes
 Hardware stack levels used:    1
 Hardware stack levels required when called:    1
 This function calls:
		_setCSN
		_spiTransferByte
 This function is called by:
		_nrfConfig
 This function uses a non-reentrant model


 *************** function _nrfSetRXAddr *****************
 Defined at:
		line 394 in file "main.c"
 Parameters:    Size  Location     Type
  pipe            1    wreg     unsigned char 
  addr            2    2[COMRAM] PTR unsigned char 
		 -> RX_ADDRESS(4), 
  len             2    4[COMRAM] int 
 Auto vars:     Size  Location     Type
  pipe            1    7[COMRAM] unsigned char 
  i               2    8[COMRAM] int 
 Return value:  Size  Location     Type
		None               void
 Registers used:
		wreg, fsr2l, fsr2h, status,2, status,0, cstack
 Tracked objects:
		On entry : 
		On exit  : 
		Unchanged: 
 Data sizes:     COMRAM   BANK0   BANK1   BANK2
      Params:         4       0       0       0
      Locals:         3       0       0       0
      Temps:          1       0       0       0
      Totals:         8       0       0       0
Total ram usage:        8 bytes
 Hardware stack levels used:    1
 Hardware stack levels required when called:    1
 This function calls:
		_setCSN
		_spiTransferByte
 This function is called by:
		_nrfConfig
 This function uses a non-reentrant model


 *************** function _nrfConfigReg *****************
 Defined at:
		line 350 in file "main.c"
 Parameters:    Size  Location     Type
  wr              1    wreg     unsigned char 
  command         1    2[COMRAM] unsigned char 
  data            1    3[COMRAM] unsigned char 
 Auto vars:     Size  Location     Type
  wr              1    4[COMRAM] unsigned char 
 Return value:  Size  Location     Type
                  1    wreg      unsigned char 
 Registers used:
		wreg, status,2, status,0, cstack
 Tracked objects:
		On entry : 
		On exit  : 
		Unchanged: 
 Data sizes:     COMRAM   BANK0   BANK1   BANK2
      Params:         2       0       0       0
      Locals:         1       0       0       0
      Temps:          0       0       0       0
      Totals:         3       0       0       0
Total ram usage:        3 bytes
 Hardware stack levels used:    1
 Hardware stack levels required when called:    1
 This function calls:
		_setCSN
		_spiTransferByte
 This function is called by:
		_nrfConfig
 This function uses a non-reentrant model


 *************** function _spiTransferByte *****************
 Defined at:
		line 442 in file "main.c"
 Parameters:    Size  Location     Type
  data            1    wreg     unsigned char 
 Auto vars:     Size  Location     Type
  data            1    0[COMRAM] unsigned char 
 Return value:  Size  Location     Type
                  1    wreg      unsigned char 
 Registers used:
		wreg, status,2, cstack
 Tracked objects:
		On entry : 
		On exit  : 
		Unchanged: 
 Data sizes:     COMRAM   BANK0   BANK1   BANK2
      Params:         0       0       0       0
      Locals:         1       0       0       0
      Temps:          0       0       0       0
      Totals:         1       0       0       0
Total ram usage:        1 bytes
 Hardware stack levels used:    1
 This function calls:
		Nothing
 This function is called by:
		_nrfGetStatus
		_nrfConfigReg
		_nrfSetTXAddr
		_nrfSetRXAddr
		_spiTransfer
		_nrfTXData
 This function uses a non-reentrant model


 *************** function _setCSN *****************
 Defined at:
		line 325 in file "main.c"
 Parameters:    Size  Location     Type
  level           2    0[COMRAM] int 
 Auto vars:     Size  Location     Type
		None
 Return value:  Size  Location     Type
		None               void
 Registers used:
		wreg, status,2, status,0
 Tracked objects:
		On entry : 
		On exit  : 
		Unchanged: 
 Data sizes:     COMRAM   BANK0   BANK1   BANK2
      Params:         2       0       0       0
      Locals:         0       0       0       0
      Temps:          0       0       0       0
      Totals:         2       0       0       0
Total ram usage:        2 bytes
 Hardware stack levels used:    1
 This function calls:
		Nothing
 This function is called by:
		_nrfGetStatus
		_nrfConfigReg
		_nrfSetTXAddr
		_nrfSetRXAddr
		_spiTransfer
		_nrfTXData
 This function uses a non-reentrant model


 *************** function _delay10ms *****************
 Defined at:
		line 482 in file "main.c"
 Parameters:    Size  Location     Type
  ms_multi        2    0[COMRAM] int 
 Auto vars:     Size  Location     Type
  i               2    3[COMRAM] int 
 Return value:  Size  Location     Type
		None               void
 Registers used:
		wreg, status,2, status,0
 Tracked objects:
		On entry : 
		On exit  : 
		Unchanged: 
 Data sizes:     COMRAM   BANK0   BANK1   BANK2
      Params:         2       0       0       0
      Locals:         2       0       0       0
      Temps:          1       0       0       0
      Totals:         5       0       0       0
Total ram usage:        5 bytes
 Hardware stack levels used:    1
 This function calls:
		Nothing
 This function is called by:
		_main
 This function uses a non-reentrant model



MODULE INFORMATION

Module		Function		Class		Link	Load	Size
shared
		__initializatio		CODE           	3B8A	0000	44

shared estimated size: 44

main.c
		_nrfConfigReg  		CODE           	3BF8	0000	74
		_spiConfig_1   		CODE           	3B36	0000	24
		_spiTransfer   		CODE           	3CFE	0000	150
		_main          		CODE           	3F10	0000	240
		_setCSN        		CODE           	3B02	0000	16
		_nrfSetTXAddr  		CODE           	3C42	0000	92
		_nrfTXData     		CODE           	3D94	0000	160
		_nrfGetStatus  		CODE           	3B68	0000	34
		_spiTransferByt		CODE           	3B24	0000	18
		_portConfig    		CODE           	3B4E	0000	26
		_nrfConfig     		CODE           	3E34	0000	220
		_nrfSetRXAddr  		CODE           	3C9E	0000	96
		_delay10ms     		CODE           	3BBC	0000	60

main.c estimated size: 1210

